; Function Attrs: nounwind uwtable
define dso_local range(i64 0, 2) i64 @timestamp_ne_date(ptr noundef readonly captures(none) %0) local_unnamed_addr #0 {
  %2 = getelementptr inbounds nuw i8, ptr %0, i64 32
  %3 = load i64, ptr %2, align 8
  %4 = getelementptr inbounds nuw i8, ptr %0, i64 48
  %5 = load i64, ptr %4, align 8
  %6 = trunc i64 %5 to i32
  switch i32 %6, label %8 [
    i32 -2147483648, label %13
    i32 2147483647, label %7
  ]

7:                                                ; preds = %1
  br label %13

8:                                                ; preds = %1
  %9 = icmp sgt i32 %6, 106751982
  br i1 %9, label %date_cmp_timestamp_internal.exit, label %10

10:                                               ; preds = %8
  %sext = shl i64 %5, 32
  %11 = ashr exact i64 %sext, 32
  %12 = mul i64 %11, 86400000000
  br label %13

13:                                               ; preds = %10, %7, %1
  %.010.i.ph.i = phi i64 [ -9223372036854775808, %1 ], [ %12, %10 ], [ 9223372036854775807, %7 ]
  %14 = tail call i32 @timestamp_cmp_internal(i64 noundef %.010.i.ph.i, i64 noundef %3) #16
  %15 = icmp ne i32 %14, 0
  %16 = zext i1 %15 to i64
  br label %date_cmp_timestamp_internal.exit

date_cmp_timestamp_internal.exit:                 ; preds = %8, %13
  %.0.i = phi i64 [ %16, %13 ], [ 1, %8 ]
  ret i64 %.0.i
}